subject= 
issuer= C = US, ST = California, L = Cupertino, O = Apple Inc., OU = FDB Team, CN = FDB LibTLS Plugin Test Intermediate CA 1
subject= C = US, ST = California, L = Cupertino, O = Apple Inc., OU = FDB Team, CN = FDB LibTLS Plugin Test Intermediate CA 1
issuer= C = US, ST = California, L = Cupertino, O = Apple Inc., OU = FDB Team, CN = FDB LibTLS Plugin Test Root CA 1
Certificate:
    Data:
        Version: 1 (0x0)
        Serial Number: 1048578 (0x100002)
    Signature Algorithm: sha256WithRSAEncryption
        Issuer: C=US, ST=California, L=Cupertino, O=Apple Inc., OU=FDB Team, CN=FDB LibTLS Plugin Test Intermediate CA 1
        Validity
            Not Before: Jan  1 00:00:00 2017 GMT
            Not After : Dec 31 00:00:00 2017 GMT
        Subject: 
        Subject Public Key Info:
            Public Key Algorithm: rsaEncryption
                Public-Key: (2048 bit)
                Modulus:
                    00:eb:56:4c:da:09:7f:4c:b7:7e:83:a4:25:12:d3:
                    a2:ba:73:38:51:6f:e0:7c:7c:87:e6:94:c9:3e:f0:
                    b2:31:09:90:fc:c7:b4:64:c9:a9:28:89:6e:6a:a1:
                    23:41:70:36:6c:13:01:06:40:14:f6:c2:f6:3c:d6:
                    8d:9b:42:0f:83:b7:75:9b:05:27:86:55:a0:8b:11:
                    7e:f2:43:f2:d8:ae:27:e2:a9:ec:80:55:39:4a:24:
                    b0:9d:f8:33:ed:d4:ca:41:e9:e6:00:81:d5:ed:47:
                    7c:da:33:2b:5a:a7:e0:4c:77:b3:a3:b0:dc:77:3e:
                    44:71:57:ba:0e:9f:73:d2:c5:cd:a3:78:37:00:cc:
                    55:1a:1c:50:45:37:f5:15:cb:b6:42:44:99:fa:13:
                    bf:d8:56:c2:39:7d:94:cb:1b:d7:04:98:13:8c:e5:
                    52:95:a7:40:2a:da:2b:36:c1:a9:01:7f:08:5c:86:
                    e6:a6:86:ea:a4:29:ee:9d:e4:4b:86:d0:4d:b8:e1:
                    5d:37:df:42:87:66:d2:31:d4:25:0a:5d:6f:60:bd:
                    53:2c:95:ea:db:f9:d0:b6:a7:4f:9e:80:0f:54:41:
                    93:a6:6c:9c:e9:bb:36:c6:cd:17:b7:20:ba:56:99:
                    87:b2:86:47:f3:94:8a:34:66:dd:f4:cc:a7:c4:d1:
                    c9:71
                Exponent: 65537 (0x10001)
    Signature Algorithm: sha256WithRSAEncryption
         99:42:4d:71:3b:5c:70:1f:1a:c5:3b:6a:6a:4a:fe:10:93:6d:
         ce:dd:d6:2f:9e:75:0a:27:44:a3:06:96:d9:bd:e3:33:2a:3d:
         14:80:e1:d3:f0:4a:24:f4:30:08:74:8d:b3:1d:78:d8:be:b9:
         f2:fa:de:1b:a0:fa:51:d2:c3:ea:47:4a:21:16:21:b9:97:bd:
         e7:72:26:ae:42:20:ea:09:2f:34:0b:3e:1f:77:ec:63:a4:10:
         34:b9:3e:9e:22:06:b3:28:c6:e3:d0:ee:7c:64:1c:3c:0f:6c:
         c1:9c:b9:84:62:fb:04:8f:2c:49:a6:e8:bb:11:46:30:06:08:
         17:e7:4d:8b:c9:1a:12:74:49:c0:9d:e6:fc:89:c8:b6:81:19:
         dc:1d:59:10:5f:2c:d2:c6:e4:73:29:03:8c:7a:c3:41:7c:28:
         88:97:c7:31:6c:78:18:b1:8d:cf:5a:35:de:9b:89:a3:48:9f:
         eb:0d:57:8a:d1:be:a0:d6:42:71:8f:7f:1c:f5:ef:d4:00:7d:
         a8:7d:e7:03:2b:3f:bf:50:63:e5:72:57:38:ae:50:5f:94:42:
         ea:4c:f8:02:b4:33:67:e8:09:bf:9e:21:01:48:63:d4:cf:29:
         da:c7:8e:21:a6:ae:1f:e4:56:03:74:c8:2e:3e:77:9d:60:e5:
         53:4c:14:87
-----BEGIN CERTIFICATE-----
MIIDCDCCAfACAxAAAjANBgkqhkiG9w0BAQsFADCBkTELMAkGA1UEBhMCVVMxEzAR
BgNVBAgMCkNhbGlmb3JuaWExEjAQBgNVBAcMCUN1cGVydGlubzETMBEGA1UECgwK
QXBwbGUgSW5jLjERMA8GA1UECwwIRkRCIFRlYW0xMTAvBgNVBAMMKEZEQiBMaWJU
TFMgUGx1Z2luIFRlc3QgSW50ZXJtZWRpYXRlIENBIDEwHhcNMTcwMTAxMDAwMDAw
WhcNMTcxMjMxMDAwMDAwWjAAMIIBIjANBgkqhkiG9w0BAQEFAAOCAQ8AMIIBCgKC
AQEA61ZM2gl/TLd+g6QlEtOiunM4UW/gfHyH5pTJPvCyMQmQ/Me0ZMmpKIluaqEj
QXA2bBMBBkAU9sL2PNaNm0IPg7d1mwUnhlWgixF+8kPy2K4n4qnsgFU5SiSwnfgz
7dTKQenmAIHV7Ud82jMrWqfgTHezo7Dcdz5EcVe6Dp9z0sXNo3g3AMxVGhxQRTf1
Fcu2QkSZ+hO/2FbCOX2UyxvXBJgTjOVSladAKtorNsGpAX8IXIbmpobqpCnuneRL
htBNuOFdN99Ch2bSMdQlCl1vYL1TLJXq2/nQtqdPnoAPVEGTpmyc6bs2xs0XtyC6
VpmHsoZH85SKNGbd9MynxNHJcQIDAQABMA0GCSqGSIb3DQEBCwUAA4IBAQCZQk1x
O1xwHxrFO2pqSv4Qk23O3dYvnnUKJ0SjBpbZveMzKj0UgOHT8Eok9DAIdI2zHXjY
vrny+t4boPpR0sPqR0ohFiG5l73nciauQiDqCS80Cz4fd+xjpBA0uT6eIgazKMbj
0O58ZBw8D2zBnLmEYvsEjyxJpui7EUYwBggX502LyRoSdEnAneb8ici2gRncHVkQ
XyzSxuRzKQOMesNBfCiIl8cxbHgYsY3PWjXem4mjSJ/rDVeK0b6g1kJxj38c9e/U
AH2ofecDKz+/UGPlclc4rlBflELqTPgCtDNn6Am/niEBSGPUzynax44hpq4f5FYD
dMguPnedYOVTTBSH
-----END CERTIFICATE-----
-----BEGIN CERTIFICATE-----
MIIEAjCCAuqgAwIBAgIJALOPTrQGpetyMA0GCSqGSIb3DQEBBQUAMIGJMQswCQYD
VQQGEwJVUzETMBEGA1UECAwKQ2FsaWZvcm5pYTESMBAGA1UEBwwJQ3VwZXJ0aW5v
MRMwEQYDVQQKDApBcHBsZSBJbmMuMREwDwYDVQQLDAhGREIgVGVhbTEpMCcGA1UE
AwwgRkRCIExpYlRMUyBQbHVnaW4gVGVzdCBSb290IENBIDEwHhcNMTgwNDI2MTYz
NTU0WhcNMjgwNDIzMTYzNTU0WjCBkTELMAkGA1UEBhMCVVMxEzARBgNVBAgMCkNh
bGlmb3JuaWExEjAQBgNVBAcMCUN1cGVydGlubzETMBEGA1UECgwKQXBwbGUgSW5j
LjERMA8GA1UECwwIRkRCIFRlYW0xMTAvBgNVBAMMKEZEQiBMaWJUTFMgUGx1Z2lu
IFRlc3QgSW50ZXJtZWRpYXRlIENBIDEwggEiMA0GCSqGSIb3DQEBAQUAA4IBDwAw
ggEKAoIBAQCqE74CmPzqGMCmWWTrCDBOShmiOcu266V0+upPBn3aEo3ZUevdRDIZ
R5waXh8sVmxoUfQdwxOBZPZFSLULPU9vQDny2DsbYfJ1MLNzEH9W5gHc5YzpvtuE
6cZvaCb8PLGcGOesACwJ2tpc+lI9ZxfB/vIO/ZUcg0mHfhcaE1bHRVrj0yZTkPe/
yhQWWQshS6locyn+LbvayB72uaC4OeCbucGOH6B4SU1pBpG8OPMD3ktES8nIjDdj
RnuiPestjt7VIB6u37CsTSupK9Gxgyi7U9JI7kwCnRinZmHygDzLzlQ8Awksg/Qb
NuSfV0OcNG3O/Xal4OWhS1AMpayPMxXFAgMBAAGjYzBhMB0GA1UdDgQWBBROZFq0
Agcx7u6huYDHWps2dJR6UjAfBgNVHSMEGDAWgBQIWQAHRYgGMY/ziEvCGaoqIFvJ
eDAPBgNVHRMBAf8EBTADAQH/MA4GA1UdDwEB/wQEAwIBBjANBgkqhkiG9w0BAQUF
AAOCAQEApoV9izIHMB4418NP8FTdsToMwemxIs/ASoURGPnXnDG3EG9R8E8h64bg
38fddyaOR4AkWyn1DELzlp2vdlA4v8xY5Fu4au5MSvpxzf8H2ia3QUP/xEGj70Vg
6BJhRWQ/iOALVLVsTvJmhXQBlhIsFZMi0eIcr8CqpZ6x80SuLgl67omBvqpoVNuA
Y0FKgva+bNcEDhPur7LYAiTT+0ykgKFMR2/KnPDJOh12lYMw2ILQIQXuYCJJOXNy
nXDXa7l8vxywxMtdk5jqAB8Jct+9gV69F5uW+VuP9CEfHXpOZmDsxbFzsQbU+5mD
xj4rdSXEuk8h9bOBuqUBR9opl7jw9Q==
-----END CERTIFICATE-----
-----BEGIN PRIVATE KEY-----
MIIEvQIBADANBgkqhkiG9w0BAQEFAASCBKcwggSjAgEAAoIBAQDrVkzaCX9Mt36D
pCUS06K6czhRb+B8fIfmlMk+8LIxCZD8x7RkyakoiW5qoSNBcDZsEwEGQBT2wvY8
1o2bQg+Dt3WbBSeGVaCLEX7yQ/LYrifiqeyAVTlKJLCd+DPt1MpB6eYAgdXtR3za
Mytap+BMd7OjsNx3PkRxV7oOn3PSxc2jeDcAzFUaHFBFN/UVy7ZCRJn6E7/YVsI5
fZTLG9cEmBOM5VKVp0Aq2is2wakBfwhchuamhuqkKe6d5EuG0E244V0330KHZtIx
1CUKXW9gvVMslerb+dC2p0+egA9UQZOmbJzpuzbGzRe3ILpWmYeyhkfzlIo0Zt30
zKfE0clxAgMBAAECggEAKZNTfGmVHb6FEUicbBkLdJkKaAi1xghSEgBTFVV8hYFF
JgM58VxXEBxHb3sMOXFTjABHfA0yJu4GhnT5C2a+SuzMUBi3BNp3xFnQ7YfnjTQn
Q7n1WC62Mk0NDrtcoTWojcB+q7REUOkCO6IylI935sp26AJE0KQlf0iaTB8LXT7R
/IeZgUs0qoY+LVa+bsCgXvvFqtf1U3GHgW6R6vNksWAL/hDewJPAo4pzoZYRc1No
TJ8lP2fBNTzn+8zkaoHJ6awT9T0TMlwq0uruDr0wGeSTYpuwP9IuwDdByiJO6EQs
7XNTUlEr5yjfIpR5pnKRxFwlrvPl8xpW32gQgZYoYQKBgQD39P5NEquNM+CNM9EB
381du6bk3kFB2bn49U9jGbU1kcMJekJ6cOsGQgZvtmh7GWkGdey8icjOCxx/rmQ8
Yk05XD1/qPk1H1EQ0xjJ0NheHSq1eT3L4ZAR9hvCZa7Kn882VgKTAHAnp0XxoIse
mF5TVCPTxHzl1hd9V5ocRinXBQKBgQDy+IM+axVIuTIP2KUs19JooZaSx2k9k575
7utNCFsvYjA9Gi3QufkBGZ+zoQjwJGKyQbYdldgObMivhylhL/YAsfG0OdZYEMLQ
NF9xHy4nLI/6ikhb7Tm1Ja4iCrEj7H78TLz7U3V2gaOTrpVWg/x+SXg1wz6gMH1p
r2Vm4wZcfQKBgAMD8rfDO1zbPabZ83e/XgL+zjfIUCjZ2f4iFZYR8Pc2z5Vk7DwK
9YC8+tEO+dRNac6PTpK4Zj3DOtR+rW9ijqfc7E6KIoW33MeEma+Sn579YdCVKeA5
3QOq54mErQx/xwhVIXDiN3rz+NDIcAiuN69xvYHMyOwOn3iBwTkIzWd1AoGAaDUF
tSOgQUyMmBdG4HDAIXgMaG92R56ktHUwHh3TXgMyxUIRHFBm533h7NzIRJaWbfWY
8h9uRuGJQR8rNC+pxqqLC80yjRrDMyEDPjUtSkfmiIH+fs7DzVmX0ancR5gK7pLL
Cs/EtUrsqU5bZnu9Mzy3ffd7SKEDaOx9BR+hftECgYEAs0wGUVW5oZoaHzHorHfG
W4dOwvmcT5Y2uHP8JBiOr3l6NHzdbOhN9DmEo62sf4rIrz+h1TIkLCS36Agm28JL
ptTfVAaB6ufGwBh8uMtzL5cd6gZgG2g9SKEdHCIQ9eQajuepWEgtMJda5e1+zLfB
Na5+X0YtsCTXKtqSMSO0Zy4=
-----END PRIVATE KEY-----
